(lp0
(S'cppflags'
p1
ccopy_reg
_reconstructor
p2
(cino.utils
SpaceList
p3
c__builtin__
list
p4
(lp5
S'-mmcu=atmega168'
p6
aS'-DF_CPU=16000000L'
p7
aS'-DARDUINO=105'
p8
aS'-I/home/jesse/code/arduino/arduino-1.0.5/hardware/arduino/cores/arduino'
p9
aS'-ffunction-sections'
p10
aS'-fdata-sections'
p11
aS'-g'
p12
aS'-Os'
p13
aS'-w'
p14
aS'-I/home/jesse/code/arduino/arduino-1.0.5/hardware/arduino/variants/standard'
p15
aS'-I/home/jesse/code/arduino/arduino-1.0.5/libraries/Servo'
p16
aS'-I/home/jesse/code/arduino/arduino-1.0.5/hardware/arduino/cores/arduino'
p17
aS'-I/home/jesse/code/arduino/arduino-1.0.5/hardware/arduino/cores/arduino/avr-libc'
p18
atp19
Rp20
tp21
a(S'objcopy'
p22
S'/home/jesse/code/arduino/arduino-1.0.5/hardware/tools/avr/bin/avr-objcopy'
p23
tp24
a(S'version.txt'
p25
S'/home/jesse/code/arduino/arduino-1.0.5/lib/version.txt'
p26
tp27
a(S'used_libs'
p28
(lp29
S'/home/jesse/code/arduino/arduino-1.0.5/libraries/Servo'
p30
aS'/home/jesse/code/arduino/arduino-1.0.5/hardware/arduino/cores/arduino'
p31
atp32
a(S'cc'
p33
S'/home/jesse/code/arduino/arduino-1.0.5/hardware/tools/avr/bin/avr-gcc'
p34
tp35
a(S'make'
p36
S'/usr/bin/make'
p37
tp38
a(S'build_dir'
p39
S'.build/diecimila-55156a30'
p40
tp41
a(S'arduino_core_dir'
p42
g31
tp43
a(S'boards.txt'
p44
S'/home/jesse/code/arduino/arduino-1.0.5/hardware/arduino/boards.txt'
p45
tp46
a(S'cxxflags'
p47
g2
(g3
g4
(lp48
S'-fno-exceptions'
p49
atp50
Rp51
tp52
a(S'arduino_variants_dir'
p53
S'/home/jesse/code/arduino/arduino-1.0.5/hardware/arduino/variants'
p54
tp55
a(S'deps'
p56
g2
(g3
g4
(lp57
S'.build/diecimila-55156a30/src/dependencies.d'
p58
aS'.build/diecimila-55156a30/Servo/dependencies.d'
p59
aS'.build/diecimila-55156a30/arduino/dependencies.d'
p60
atp61
Rp62
tp63
a(S'ar'
p64
S'/home/jesse/code/arduino/arduino-1.0.5/hardware/tools/avr/bin/avr-ar'
p65
tp66
a(S'names'
p67
(dp68
S'cpp'
p69
S'%s.cpp'
p70
sS'obj'
p71
S'%s.o'
p72
sS'deps'
p73
S'%s.d'
p74
sS'lib'
p75
S'lib%s.a'
p76
stp77
a(S'cflags'
p78
g2
(g3
g4
(lp79
tp80
Rp81
tp82
a(S'ldflags'
p83
g2
(g3
g4
(lp84
g6
aS'-Wl,-Os'
p85
aS'-Wl,--gc-sections'
p86
atp87
Rp88
tp89
a(S'arduino_libraries_dir'
p90
S'/home/jesse/code/arduino/arduino-1.0.5/libraries'
p91
tp92
a(S'arduino_lib_version'
p93
g2
(cino.environment
Version
p94
c__builtin__
tuple
p95
(I1
I0
I5
tp96
tp97
Rp98
tp99
a(S'arduino_dist_dir'
p100
S'/home/jesse/code/arduino/arduino-1.0.5/'
p101
tp102
a(S'board_models'
p103
cino.environment
BoardModels
p104
((lp105
(lp106
S'uno'
p107
a(dp108
S'bootloader'
p109
(dp110
S'extended_fuses'
p111
S'0x05'
p112
sS'high_fuses'
p113
S'0xde'
p114
sS'low_fuses'
p115
S'0xff'
p116
sS'lock_bits'
p117
S'0x0F'
p118
sS'file'
p119
S'optiboot_atmega328.hex'
p120
sS'path'
p121
S'optiboot'
p122
sS'unlock_bits'
p123
S'0x3F'
p124
ssS'upload'
p125
(dp126
S'speed'
p127
S'115200'
p128
sS'maximum_size'
p129
S'32256'
p130
sS'protocol'
p131
S'arduino'
p132
ssS'name'
p133
S'Arduino Uno'
p134
sS'build'
p135
(dp136
S'core'
p137
S'arduino'
p138
sS'mcu'
p139
S'atmega328p'
p140
sS'f_cpu'
p141
S'16000000L'
p142
sS'variant'
p143
S'standard'
p144
ssaa(lp145
S'atmega328'
p146
a(dp147
S'bootloader'
p148
(dp149
S'extended_fuses'
p150
S'0x05'
p151
sS'high_fuses'
p152
S'0xDA'
p153
sS'low_fuses'
p154
S'0xFF'
p155
sS'lock_bits'
p156
S'0x0F'
p157
sS'file'
p158
S'ATmegaBOOT_168_atmega328.hex'
p159
sS'path'
p160
S'atmega'
p161
sS'unlock_bits'
p162
S'0x3F'
p163
ssS'upload'
p164
(dp165
S'speed'
p166
S'57600'
p167
sS'maximum_size'
p168
S'30720'
p169
sS'protocol'
p170
S'arduino'
p171
ssS'name'
p172
S'Arduino Duemilanove w/ ATmega328'
p173
sS'build'
p174
(dp175
S'core'
p176
S'arduino'
p177
sS'mcu'
p178
S'atmega328p'
p179
sS'f_cpu'
p180
S'16000000L'
p181
sS'variant'
p182
S'standard'
p183
ssaa(lp184
S'diecimila'
p185
a(dp186
S'bootloader'
p187
(dp188
S'extended_fuses'
p189
S'0x00'
p190
sS'high_fuses'
p191
S'0xdd'
p192
sS'low_fuses'
p193
S'0xff'
p194
sS'lock_bits'
p195
S'0x0F'
p196
sS'file'
p197
S'ATmegaBOOT_168_diecimila.hex'
p198
sS'path'
p199
S'atmega'
p200
sS'unlock_bits'
p201
S'0x3F'
p202
ssS'upload'
p203
(dp204
S'speed'
p205
S'19200'
p206
sS'maximum_size'
p207
S'14336'
p208
sS'protocol'
p209
S'arduino'
p210
ssS'name'
p211
S'Arduino Diecimila or Duemilanove w/ ATmega168'
p212
sS'build'
p213
(dp214
S'core'
p215
S'arduino'
p216
sS'mcu'
p217
S'atmega168'
p218
sS'f_cpu'
p219
S'16000000L'
p220
sS'variant'
p221
S'standard'
p222
ssaa(lp223
S'nano328'
p224
a(dp225
S'bootloader'
p226
(dp227
S'extended_fuses'
p228
S'0x05'
p229
sS'high_fuses'
p230
S'0xDA'
p231
sS'low_fuses'
p232
S'0xFF'
p233
sS'lock_bits'
p234
S'0x0F'
p235
sS'file'
p236
S'ATmegaBOOT_168_atmega328.hex'
p237
sS'path'
p238
S'atmega'
p239
sS'unlock_bits'
p240
S'0x3F'
p241
ssS'upload'
p242
(dp243
S'speed'
p244
S'57600'
p245
sS'maximum_size'
p246
S'30720'
p247
sS'protocol'
p248
S'arduino'
p249
ssS'name'
p250
S'Arduino Nano w/ ATmega328'
p251
sS'build'
p252
(dp253
S'core'
p254
S'arduino'
p255
sS'mcu'
p256
S'atmega328p'
p257
sS'f_cpu'
p258
S'16000000L'
p259
sS'variant'
p260
S'eightanaloginputs'
p261
ssaa(lp262
S'nano'
p263
a(dp264
S'bootloader'
p265
(dp266
S'extended_fuses'
p267
S'0x00'
p268
sS'high_fuses'
p269
S'0xdd'
p270
sS'low_fuses'
p271
S'0xff'
p272
sS'lock_bits'
p273
S'0x0F'
p274
sS'file'
p275
S'ATmegaBOOT_168_diecimila.hex'
p276
sS'path'
p277
S'atmega'
p278
sS'unlock_bits'
p279
S'0x3F'
p280
ssS'upload'
p281
(dp282
S'speed'
p283
S'19200'
p284
sS'maximum_size'
p285
S'14336'
p286
sS'protocol'
p287
S'arduino'
p288
ssS'name'
p289
S'Arduino Nano w/ ATmega168'
p290
sS'build'
p291
(dp292
S'core'
p293
S'arduino'
p294
sS'mcu'
p295
S'atmega168'
p296
sS'f_cpu'
p297
S'16000000L'
p298
sS'variant'
p299
S'eightanaloginputs'
p300
ssaa(lp301
S'mega2560'
p302
a(dp303
S'bootloader'
p304
(dp305
S'extended_fuses'
p306
S'0xFD'
p307
sS'high_fuses'
p308
S'0xD8'
p309
sS'low_fuses'
p310
S'0xFF'
p311
sS'lock_bits'
p312
S'0x0F'
p313
sS'file'
p314
S'stk500boot_v2_mega2560.hex'
p315
sS'path'
p316
S'stk500v2'
p317
sS'unlock_bits'
p318
S'0x3F'
p319
ssS'upload'
p320
(dp321
S'speed'
p322
S'115200'
p323
sS'maximum_size'
p324
S'258048'
p325
sS'protocol'
p326
S'wiring'
p327
ssS'name'
p328
S'Arduino Mega 2560 or Mega ADK'
p329
sS'build'
p330
(dp331
S'core'
p332
S'arduino'
p333
sS'mcu'
p334
S'atmega2560'
p335
sS'f_cpu'
p336
S'16000000L'
p337
sS'variant'
p338
S'mega'
p339
ssaa(lp340
S'mega'
p341
a(dp342
S'bootloader'
p343
(dp344
S'extended_fuses'
p345
S'0xF5'
p346
sS'high_fuses'
p347
S'0xDA'
p348
sS'low_fuses'
p349
S'0xFF'
p350
sS'lock_bits'
p351
S'0x0F'
p352
sS'file'
p353
S'ATmegaBOOT_168_atmega1280.hex'
p354
sS'path'
p355
S'atmega'
p356
sS'unlock_bits'
p357
S'0x3F'
p358
ssS'upload'
p359
(dp360
S'speed'
p361
S'57600'
p362
sS'maximum_size'
p363
S'126976'
p364
sS'protocol'
p365
S'arduino'
p366
ssS'name'
p367
S'Arduino Mega (ATmega1280)'
p368
sS'build'
p369
(dp370
S'core'
p371
S'arduino'
p372
sS'mcu'
p373
S'atmega1280'
p374
sS'f_cpu'
p375
S'16000000L'
p376
sS'variant'
p377
S'mega'
p378
ssaa(lp379
S'leonardo'
p380
a(dp381
S'bootloader'
p382
(dp383
S'extended_fuses'
p384
S'0xcb'
p385
sS'high_fuses'
p386
S'0xd8'
p387
sS'low_fuses'
p388
S'0xff'
p389
sS'lock_bits'
p390
S'0x2F'
p391
sS'file'
p392
S'Caterina-Leonardo.hex'
p393
sS'path'
p394
S'caterina'
p395
sS'unlock_bits'
p396
S'0x3F'
p397
ssS'upload'
p398
(dp399
S'speed'
p400
S'57600'
p401
sS'maximum_size'
p402
S'28672'
p403
sS'protocol'
p404
S'avr109'
p405
sS'disable_flushing'
p406
S'true'
p407
ssS'name'
p408
S'Arduino Leonardo'
p409
sS'build'
p410
(dp411
S'core'
p412
S'arduino'
p413
sS'f_cpu'
p414
S'16000000L'
p415
sS'vid'
p416
S'0x2341'
p417
sS'pid'
p418
S'0x8036'
p419
sS'variant'
p420
S'leonardo'
p421
sS'mcu'
p422
S'atmega32u4'
p423
ssaa(lp424
S'esplora'
p425
a(dp426
S'bootloader'
p427
(dp428
S'extended_fuses'
p429
S'0xcb'
p430
sS'high_fuses'
p431
S'0xd8'
p432
sS'low_fuses'
p433
S'0xff'
p434
sS'lock_bits'
p435
S'0x2F'
p436
sS'file'
p437
S'Caterina-Esplora.hex'
p438
sS'path'
p439
S'caterina'
p440
sS'unlock_bits'
p441
S'0x3F'
p442
ssS'upload'
p443
(dp444
S'speed'
p445
S'57600'
p446
sS'maximum_size'
p447
S'28672'
p448
sS'protocol'
p449
S'avr109'
p450
sS'disable_flushing'
p451
S'true'
p452
ssS'name'
p453
S'Arduino Esplora'
p454
sS'build'
p455
(dp456
S'core'
p457
S'arduino'
p458
sS'f_cpu'
p459
S'16000000L'
p460
sS'vid'
p461
S'0x2341'
p462
sS'pid'
p463
S'0x803C'
p464
sS'variant'
p465
S'leonardo'
p466
sS'mcu'
p467
S'atmega32u4'
p468
ssaa(lp469
S'micro'
p470
a(dp471
S'bootloader'
p472
(dp473
S'extended_fuses'
p474
S'0xcb'
p475
sS'high_fuses'
p476
S'0xd8'
p477
sS'low_fuses'
p478
S'0xff'
p479
sS'lock_bits'
p480
S'0x2F'
p481
sS'file'
p482
S'Caterina-Micro.hex'
p483
sS'path'
p484
S'caterina'
p485
sS'unlock_bits'
p486
S'0x3F'
p487
ssS'upload'
p488
(dp489
S'speed'
p490
S'57600'
p491
sS'maximum_size'
p492
S'28672'
p493
sS'protocol'
p494
S'avr109'
p495
sS'disable_flushing'
p496
S'true'
p497
ssS'name'
p498
S'Arduino Micro'
p499
sS'build'
p500
(dp501
S'core'
p502
S'arduino'
p503
sS'f_cpu'
p504
S'16000000L'
p505
sS'vid'
p506
S'0x2341'
p507
sS'pid'
p508
S'0x8037'
p509
sS'variant'
p510
S'micro'
p511
sS'mcu'
p512
S'atmega32u4'
p513
ssaa(lp514
S'mini328'
p515
a(dp516
S'bootloader'
p517
(dp518
S'extended_fuses'
p519
S'0x05'
p520
sS'high_fuses'
p521
S'0xd8'
p522
sS'low_fuses'
p523
S'0xff'
p524
sS'lock_bits'
p525
S'0x0F'
p526
sS'file'
p527
S'optiboot_atmega328-Mini.hex'
p528
sS'path'
p529
S'optiboot'
p530
sS'unlock_bits'
p531
S'0x3F'
p532
ssS'upload'
p533
(dp534
S'speed'
p535
S'115200'
p536
sS'maximum_size'
p537
S'28672'
p538
sS'protocol'
p539
S'arduino'
p540
ssS'name'
p541
S'Arduino Mini w/ ATmega328'
p542
sS'build'
p543
(dp544
S'core'
p545
S'arduino'
p546
sS'mcu'
p547
S'atmega328p'
p548
sS'f_cpu'
p549
S'16000000L'
p550
sS'variant'
p551
S'eightanaloginputs'
p552
ssaa(lp553
S'mini'
p554
a(dp555
S'bootloader'
p556
(dp557
S'extended_fuses'
p558
S'0x00'
p559
sS'high_fuses'
p560
S'0xdd'
p561
sS'low_fuses'
p562
S'0xff'
p563
sS'lock_bits'
p564
S'0x0F'
p565
sS'file'
p566
S'ATmegaBOOT_168_ng.hex'
p567
sS'path'
p568
S'atmega'
p569
sS'unlock_bits'
p570
S'0x3F'
p571
ssS'upload'
p572
(dp573
S'speed'
p574
S'19200'
p575
sS'maximum_size'
p576
S'14336'
p577
sS'protocol'
p578
S'arduino'
p579
ssS'name'
p580
S'Arduino Mini w/ ATmega168'
p581
sS'build'
p582
(dp583
S'core'
p584
S'arduino'
p585
sS'mcu'
p586
S'atmega168'
p587
sS'f_cpu'
p588
S'16000000L'
p589
sS'variant'
p590
S'eightanaloginputs'
p591
ssaa(lp592
S'ethernet'
p593
a(dp594
S'bootloader'
p595
(dp596
S'extended_fuses'
p597
S'0x05'
p598
sS'high_fuses'
p599
S'0xde'
p600
sS'low_fuses'
p601
S'0xff'
p602
sS'lock_bits'
p603
S'0x0F'
p604
sS'file'
p605
S'optiboot_atmega328.hex'
p606
sS'path'
p607
S'optiboot'
p608
sS'unlock_bits'
p609
S'0x3F'
p610
ssS'upload'
p611
(dp612
S'speed'
p613
S'115200'
p614
sS'maximum_size'
p615
S'32256'
p616
sS'protocol'
p617
S'arduino'
p618
ssS'name'
p619
S'Arduino Ethernet'
p620
sS'build'
p621
(dp622
S'f_cpu'
p623
S'16000000L'
p624
sS'mcu'
p625
S'atmega328p'
p626
sS'variant'
p627
S'standard'
p628
sS'core'
p629
S'arduino'
p630
ssaa(lp631
S'fio'
p632
a(dp633
S'bootloader'
p634
(dp635
S'extended_fuses'
p636
S'0x05'
p637
sS'high_fuses'
p638
S'0xDA'
p639
sS'low_fuses'
p640
S'0xFF'
p641
sS'lock_bits'
p642
S'0x0F'
p643
sS'file'
p644
S'ATmegaBOOT_168_atmega328_pro_8MHz.hex'
p645
sS'path'
p646
S'arduino:atmega'
p647
sS'unlock_bits'
p648
S'0x3F'
p649
ssS'upload'
p650
(dp651
S'speed'
p652
S'57600'
p653
sS'maximum_size'
p654
S'30720'
p655
sS'protocol'
p656
S'arduino'
p657
ssS'name'
p658
S'Arduino Fio'
p659
sS'build'
p660
(dp661
S'core'
p662
S'arduino'
p663
sS'mcu'
p664
S'atmega328p'
p665
sS'f_cpu'
p666
S'8000000L'
p667
sS'variant'
p668
S'eightanaloginputs'
p669
ssaa(lp670
S'bt328'
p671
a(dp672
S'bootloader'
p673
(dp674
S'extended_fuses'
p675
S'0x05'
p676
sS'high_fuses'
p677
S'0xd8'
p678
sS'low_fuses'
p679
S'0xff'
p680
sS'lock_bits'
p681
S'0x0F'
p682
sS'file'
p683
S'ATmegaBOOT_168_atmega328_bt.hex'
p684
sS'path'
p685
S'bt'
p686
sS'unlock_bits'
p687
S'0x3F'
p688
ssS'upload'
p689
(dp690
S'speed'
p691
S'19200'
p692
sS'maximum_size'
p693
S'28672'
p694
sS'protocol'
p695
S'arduino'
p696
sS'disable_flushing'
p697
S'true'
p698
ssS'name'
p699
S'Arduino BT w/ ATmega328'
p700
sS'build'
p701
(dp702
S'core'
p703
S'arduino'
p704
sS'mcu'
p705
S'atmega328p'
p706
sS'f_cpu'
p707
S'16000000L'
p708
sS'variant'
p709
S'eightanaloginputs'
p710
ssaa(lp711
S'bt'
p712
a(dp713
S'bootloader'
p714
(dp715
S'extended_fuses'
p716
S'0x00'
p717
sS'high_fuses'
p718
S'0xdd'
p719
sS'low_fuses'
p720
S'0xff'
p721
sS'lock_bits'
p722
S'0x0F'
p723
sS'file'
p724
S'ATmegaBOOT_168.hex'
p725
sS'path'
p726
S'bt'
p727
sS'unlock_bits'
p728
S'0x3F'
p729
ssS'upload'
p730
(dp731
S'speed'
p732
S'19200'
p733
sS'maximum_size'
p734
S'14336'
p735
sS'protocol'
p736
S'arduino'
p737
sS'disable_flushing'
p738
S'true'
p739
ssS'name'
p740
S'Arduino BT w/ ATmega168'
p741
sS'build'
p742
(dp743
S'core'
p744
S'arduino'
p745
sS'mcu'
p746
S'atmega168'
p747
sS'f_cpu'
p748
S'16000000L'
p749
sS'variant'
p750
S'eightanaloginputs'
p751
ssaa(lp752
S'LilyPadUSB'
p753
a(dp754
S'bootloader'
p755
(dp756
S'extended_fuses'
p757
S'0xce'
p758
sS'high_fuses'
p759
S'0xd8'
p760
sS'low_fuses'
p761
S'0xff'
p762
sS'lock_bits'
p763
S'0x2F'
p764
sS'file'
p765
S'Caterina-LilyPadUSB.hex'
p766
sS'path'
p767
S'caterina-LilyPadUSB'
p768
sS'unlock_bits'
p769
S'0x3F'
p770
ssS'upload'
p771
(dp772
S'speed'
p773
S'57600'
p774
sS'maximum_size'
p775
S'28672'
p776
sS'protocol'
p777
S'avr109'
p778
sS'disable_flushing'
p779
S'true'
p780
ssS'name'
p781
S'LilyPad Arduino USB'
p782
sS'build'
p783
(dp784
S'core'
p785
S'arduino'
p786
sS'f_cpu'
p787
S'8000000L'
p788
sS'vid'
p789
S'0x1B4F'
p790
sS'pid'
p791
S'0x9208'
p792
sS'variant'
p793
S'leonardo'
p794
sS'mcu'
p795
S'atmega32u4'
p796
ssaa(lp797
S'lilypad328'
p798
a(dp799
S'bootloader'
p800
(dp801
S'extended_fuses'
p802
S'0x05'
p803
sS'high_fuses'
p804
S'0xDA'
p805
sS'low_fuses'
p806
S'0xFF'
p807
sS'lock_bits'
p808
S'0x0F'
p809
sS'file'
p810
S'ATmegaBOOT_168_atmega328_pro_8MHz.hex'
p811
sS'path'
p812
S'atmega'
p813
sS'unlock_bits'
p814
S'0x3F'
p815
ssS'upload'
p816
(dp817
S'speed'
p818
S'57600'
p819
sS'maximum_size'
p820
S'30720'
p821
sS'protocol'
p822
S'arduino'
p823
ssS'name'
p824
S'LilyPad Arduino w/ ATmega328'
p825
sS'build'
p826
(dp827
S'core'
p828
S'arduino'
p829
sS'mcu'
p830
S'atmega328p'
p831
sS'f_cpu'
p832
S'8000000L'
p833
sS'variant'
p834
S'standard'
p835
ssaa(lp836
S'lilypad'
p837
a(dp838
S'bootloader'
p839
(dp840
S'extended_fuses'
p841
S'0x00'
p842
sS'high_fuses'
p843
S'0xdd'
p844
sS'low_fuses'
p845
S'0xe2'
p846
sS'lock_bits'
p847
S'0x0F'
p848
sS'file'
p849
S'LilyPadBOOT_168.hex'
p850
sS'path'
p851
S'lilypad'
p852
sS'unlock_bits'
p853
S'0x3F'
p854
ssS'upload'
p855
(dp856
S'speed'
p857
S'19200'
p858
sS'maximum_size'
p859
S'14336'
p860
sS'protocol'
p861
S'arduino'
p862
ssS'name'
p863
S'LilyPad Arduino w/ ATmega168'
p864
sS'build'
p865
(dp866
S'core'
p867
S'arduino'
p868
sS'mcu'
p869
S'atmega168'
p870
sS'f_cpu'
p871
S'8000000L'
p872
sS'variant'
p873
S'standard'
p874
ssaa(lp875
S'pro5v328'
p876
a(dp877
S'bootloader'
p878
(dp879
S'extended_fuses'
p880
S'0x05'
p881
sS'high_fuses'
p882
S'0xDA'
p883
sS'low_fuses'
p884
S'0xFF'
p885
sS'lock_bits'
p886
S'0x0F'
p887
sS'file'
p888
S'ATmegaBOOT_168_atmega328.hex'
p889
sS'path'
p890
S'atmega'
p891
sS'unlock_bits'
p892
S'0x3F'
p893
ssS'upload'
p894
(dp895
S'speed'
p896
S'57600'
p897
sS'maximum_size'
p898
S'30720'
p899
sS'protocol'
p900
S'arduino'
p901
ssS'name'
p902
S'Arduino Pro or Pro Mini (5V, 16 MHz) w/ ATmega328'
p903
sS'build'
p904
(dp905
S'core'
p906
S'arduino'
p907
sS'mcu'
p908
S'atmega328p'
p909
sS'f_cpu'
p910
S'16000000L'
p911
sS'variant'
p912
S'standard'
p913
ssaa(lp914
S'pro5v'
p915
a(dp916
S'bootloader'
p917
(dp918
S'extended_fuses'
p919
S'0x00'
p920
sS'high_fuses'
p921
S'0xdd'
p922
sS'low_fuses'
p923
S'0xff'
p924
sS'lock_bits'
p925
S'0x0F'
p926
sS'file'
p927
S'ATmegaBOOT_168_diecimila.hex'
p928
sS'path'
p929
S'atmega'
p930
sS'unlock_bits'
p931
S'0x3F'
p932
ssS'upload'
p933
(dp934
S'speed'
p935
S'19200'
p936
sS'maximum_size'
p937
S'14336'
p938
sS'protocol'
p939
S'arduino'
p940
ssS'name'
p941
S'Arduino Pro or Pro Mini (5V, 16 MHz) w/ ATmega168'
p942
sS'build'
p943
(dp944
S'core'
p945
S'arduino'
p946
sS'mcu'
p947
S'atmega168'
p948
sS'f_cpu'
p949
S'16000000L'
p950
sS'variant'
p951
S'standard'
p952
ssaa(lp953
S'pro328'
p954
a(dp955
S'bootloader'
p956
(dp957
S'extended_fuses'
p958
S'0x05'
p959
sS'high_fuses'
p960
S'0xDA'
p961
sS'low_fuses'
p962
S'0xFF'
p963
sS'lock_bits'
p964
S'0x0F'
p965
sS'file'
p966
S'ATmegaBOOT_168_atmega328_pro_8MHz.hex'
p967
sS'path'
p968
S'atmega'
p969
sS'unlock_bits'
p970
S'0x3F'
p971
ssS'upload'
p972
(dp973
S'speed'
p974
S'57600'
p975
sS'maximum_size'
p976
S'30720'
p977
sS'protocol'
p978
S'arduino'
p979
ssS'name'
p980
S'Arduino Pro or Pro Mini (3.3V, 8 MHz) w/ ATmega328'
p981
sS'build'
p982
(dp983
S'core'
p984
S'arduino'
p985
sS'mcu'
p986
S'atmega328p'
p987
sS'f_cpu'
p988
S'8000000L'
p989
sS'variant'
p990
S'standard'
p991
ssaa(lp992
S'pro'
p993
a(dp994
S'bootloader'
p995
(dp996
S'extended_fuses'
p997
S'0x00'
p998
sS'high_fuses'
p999
S'0xdd'
p1000
sS'low_fuses'
p1001
S'0xc6'
p1002
sS'lock_bits'
p1003
S'0x0F'
p1004
sS'file'
p1005
S'ATmegaBOOT_168_pro_8MHz.hex'
p1006
sS'path'
p1007
S'atmega'
p1008
sS'unlock_bits'
p1009
S'0x3F'
p1010
ssS'upload'
p1011
(dp1012
S'speed'
p1013
S'19200'
p1014
sS'maximum_size'
p1015
S'14336'
p1016
sS'protocol'
p1017
S'arduino'
p1018
ssS'name'
p1019
S'Arduino Pro or Pro Mini (3.3V, 8 MHz) w/ ATmega168'
p1020
sS'build'
p1021
(dp1022
S'core'
p1023
S'arduino'
p1024
sS'mcu'
p1025
S'atmega168'
p1026
sS'f_cpu'
p1027
S'8000000L'
p1028
sS'variant'
p1029
S'standard'
p1030
ssaa(lp1031
S'atmega168'
p1032
a(dp1033
S'bootloader'
p1034
(dp1035
S'extended_fuses'
p1036
S'0x00'
p1037
sS'high_fuses'
p1038
S'0xdd'
p1039
sS'low_fuses'
p1040
S'0xff'
p1041
sS'lock_bits'
p1042
S'0x0F'
p1043
sS'file'
p1044
S'ATmegaBOOT_168_ng.hex'
p1045
sS'path'
p1046
S'atmega'
p1047
sS'unlock_bits'
p1048
S'0x3F'
p1049
ssS'upload'
p1050
(dp1051
S'speed'
p1052
S'19200'
p1053
sS'maximum_size'
p1054
S'14336'
p1055
sS'protocol'
p1056
S'arduino'
p1057
ssS'name'
p1058
S'Arduino NG or older w/ ATmega168'
p1059
sS'build'
p1060
(dp1061
S'core'
p1062
S'arduino'
p1063
sS'mcu'
p1064
S'atmega168'
p1065
sS'f_cpu'
p1066
S'16000000L'
p1067
sS'variant'
p1068
S'standard'
p1069
ssaa(lp1070
S'atmega8'
p1071
a(dp1072
S'bootloader'
p1073
(dp1074
S'high_fuses'
p1075
S'0xca'
p1076
sS'low_fuses'
p1077
S'0xdf'
p1078
sS'lock_bits'
p1079
S'0x0F'
p1080
sS'file'
p1081
S'ATmegaBOOT-prod-firmware-2009-11-07.hex'
p1082
sS'path'
p1083
S'atmega8'
p1084
sS'unlock_bits'
p1085
S'0x3F'
p1086
ssS'upload'
p1087
(dp1088
S'speed'
p1089
S'19200'
p1090
sS'maximum_size'
p1091
S'7168'
p1092
sS'protocol'
p1093
S'arduino'
p1094
ssS'name'
p1095
S'Arduino NG or older w/ ATmega8'
p1096
sS'build'
p1097
(dp1098
S'core'
p1099
S'arduino'
p1100
sS'mcu'
p1101
S'atmega8'
p1102
sS'f_cpu'
p1103
S'16000000L'
p1104
sS'variant'
p1105
S'standard'
p1106
ssaa(lp1107
S'robotControl'
p1108
a(dp1109
S'bootloader'
p1110
(dp1111
S'extended_fuses'
p1112
S'0xcb'
p1113
sS'high_fuses'
p1114
S'0xd8'
p1115
sS'low_fuses'
p1116
S'0xff'
p1117
sS'lock_bits'
p1118
S'0x2F'
p1119
sS'file'
p1120
S'Caterina-Robot-Control.hex'
p1121
sS'path'
p1122
S'caterina-Arduino_Robot'
p1123
sS'unlock_bits'
p1124
S'0x3F'
p1125
ssS'upload'
p1126
(dp1127
S'speed'
p1128
S'57600'
p1129
sS'maximum_size'
p1130
S'28672'
p1131
sS'protocol'
p1132
S'avr109'
p1133
sS'disable_flushing'
p1134
S'true'
p1135
ssS'name'
p1136
S'Arduino Robot Control'
p1137
sS'build'
p1138
(dp1139
S'core'
p1140
S'robot'
p1141
sS'f_cpu'
p1142
S'16000000L'
p1143
sS'vid'
p1144
S'0x2341'
p1145
sS'pid'
p1146
S'0x8038'
p1147
sS'variant'
p1148
S'robot_control'
p1149
sS'mcu'
p1150
S'atmega32u4'
p1151
ssaa(lp1152
S'robotMotor'
p1153
a(dp1154
S'bootloader'
p1155
(dp1156
S'extended_fuses'
p1157
S'0xcb'
p1158
sS'high_fuses'
p1159
S'0xd8'
p1160
sS'low_fuses'
p1161
S'0xff'
p1162
sS'lock_bits'
p1163
S'0x2F'
p1164
sS'file'
p1165
S'Caterina-Robot-Motor.hex'
p1166
sS'path'
p1167
S'caterina-Arduino_Robot'
p1168
sS'unlock_bits'
p1169
S'0x3F'
p1170
ssS'upload'
p1171
(dp1172
S'speed'
p1173
S'57600'
p1174
sS'maximum_size'
p1175
S'28672'
p1176
sS'protocol'
p1177
S'avr109'
p1178
sS'disable_flushing'
p1179
S'true'
p1180
ssS'name'
p1181
S'Arduino Robot Motor'
p1182
sS'build'
p1183
(dp1184
S'core'
p1185
S'robot'
p1186
sS'f_cpu'
p1187
S'16000000L'
p1188
sS'vid'
p1189
S'0x2341'
p1190
sS'pid'
p1191
S'0x8039'
p1192
sS'variant'
p1193
S'robot_motor'
p1194
sS'mcu'
p1195
S'atmega32u4'
p1196
ssaatp1197
Rp1198
(dp1199
S'default'
p1200
S'uno'
p1201
sbtp1202
a(S'cxx'
p1203
S'/home/jesse/code/arduino/arduino-1.0.5/hardware/tools/avr/bin/avr-g++'
p1204
tp1205
a.