(lp0
(S'cppflags'
p1
ccopy_reg
_reconstructor
p2
(cino.utils
SpaceList
p3
c__builtin__
list
p4
(lp5
S'-mmcu=atmega168'
p6
aS'-DF_CPU=16000000L'
p7
aS'-DARDUINO=105'
p8
aS'-I/home/jesse/code/arduino/arduino-1.0.5/hardware/arduino/cores/arduino'
p9
aS'-ffunction-sections'
p10
aS'-fdata-sections'
p11
aS'-g'
p12
aS'-Os'
p13
aS'-w'
p14
aS'-I/home/jesse/code/arduino/arduino-1.0.5/hardware/arduino/variants/standard'
p15
aS'-I/home/jesse/code/arduino/arduino-1.0.5/libraries/Servo'
p16
aS'-I/home/jesse/code/arduino/arduino-1.0.5/hardware/arduino/cores/arduino'
p17
aS'-I/home/jesse/code/arduino/arduino-1.0.5/hardware/arduino/cores/arduino/avr-libc'
p18
atp19
Rp20
tp21
a(S'arduino_dist_dir'
p22
S'/home/jesse/code/arduino/arduino-1.0.5/'
p23
tp24
a(S'version.txt'
p25
S'/home/jesse/code/arduino/arduino-1.0.5/lib/version.txt'
p26
tp27
a(S'used_libs'
p28
(lp29
S'/home/jesse/code/arduino/arduino-1.0.5/libraries/Servo'
p30
aS'/home/jesse/code/arduino/arduino-1.0.5/hardware/arduino/cores/arduino'
p31
atp32
a(S'cc'
p33
S'/home/jesse/code/arduino/arduino-1.0.5/hardware/tools/avr/bin/avr-gcc'
p34
tp35
a(S'make'
p36
S'/usr/bin/make'
p37
tp38
a(S'cflags'
p39
g2
(g3
g4
(lp40
tp41
Rp42
tp43
a(S'build_dir'
p44
S'.build/diecimila-55156a30'
p45
tp46
a(S'arduino_core_dir'
p47
g31
tp48
a(S'boards.txt'
p49
S'/home/jesse/code/arduino/arduino-1.0.5/hardware/arduino/boards.txt'
p50
tp51
a(S'cxxflags'
p52
g2
(g3
g4
(lp53
S'-fno-exceptions'
p54
atp55
Rp56
tp57
a(S'arduino_variants_dir'
p58
S'/home/jesse/code/arduino/arduino-1.0.5/hardware/arduino/variants'
p59
tp60
a(S'ar'
p61
S'/home/jesse/code/arduino/arduino-1.0.5/hardware/tools/avr/bin/avr-ar'
p62
tp63
a(S'cxx'
p64
S'/home/jesse/code/arduino/arduino-1.0.5/hardware/tools/avr/bin/avr-g++'
p65
tp66
a(S'names'
p67
(dp68
S'cpp'
p69
S'%s.cpp'
p70
sS'obj'
p71
S'%s.o'
p72
sS'deps'
p73
S'%s.d'
p74
sS'lib'
p75
S'lib%s.a'
p76
stp77
a(S'deps'
p78
g2
(g3
g4
(lp79
S'.build/diecimila-55156a30/src/dependencies.d'
p80
aS'.build/diecimila-55156a30/Servo/dependencies.d'
p81
aS'.build/diecimila-55156a30/arduino/dependencies.d'
p82
atp83
Rp84
tp85
a(S'arduino_libraries_dir'
p86
S'/home/jesse/code/arduino/arduino-1.0.5/libraries'
p87
tp88
a(S'arduino_lib_version'
p89
g2
(cino.environment
Version
p90
c__builtin__
tuple
p91
(I1
I0
I5
tp92
tp93
Rp94
tp95
a(S'objcopy'
p96
S'/home/jesse/code/arduino/arduino-1.0.5/hardware/tools/avr/bin/avr-objcopy'
p97
tp98
a(S'board_models'
p99
cino.environment
BoardModels
p100
((lp101
(lp102
S'uno'
p103
a(dp104
S'build'
p105
(dp106
S'core'
p107
S'arduino'
p108
sS'mcu'
p109
S'atmega328p'
p110
sS'f_cpu'
p111
S'16000000L'
p112
sS'variant'
p113
S'standard'
p114
ssS'bootloader'
p115
(dp116
S'extended_fuses'
p117
S'0x05'
p118
sS'high_fuses'
p119
S'0xde'
p120
sS'low_fuses'
p121
S'0xff'
p122
sS'lock_bits'
p123
S'0x0F'
p124
sS'file'
p125
S'optiboot_atmega328.hex'
p126
sS'path'
p127
S'optiboot'
p128
sS'unlock_bits'
p129
S'0x3F'
p130
ssS'upload'
p131
(dp132
S'protocol'
p133
S'arduino'
p134
sS'maximum_size'
p135
S'32256'
p136
sS'speed'
p137
S'115200'
p138
ssS'name'
p139
S'Arduino Uno'
p140
saa(lp141
S'atmega328'
p142
a(dp143
S'build'
p144
(dp145
S'core'
p146
S'arduino'
p147
sS'mcu'
p148
S'atmega328p'
p149
sS'f_cpu'
p150
S'16000000L'
p151
sS'variant'
p152
S'standard'
p153
ssS'bootloader'
p154
(dp155
S'extended_fuses'
p156
S'0x05'
p157
sS'high_fuses'
p158
S'0xDA'
p159
sS'low_fuses'
p160
S'0xFF'
p161
sS'lock_bits'
p162
S'0x0F'
p163
sS'file'
p164
S'ATmegaBOOT_168_atmega328.hex'
p165
sS'path'
p166
S'atmega'
p167
sS'unlock_bits'
p168
S'0x3F'
p169
ssS'upload'
p170
(dp171
S'protocol'
p172
S'arduino'
p173
sS'maximum_size'
p174
S'30720'
p175
sS'speed'
p176
S'57600'
p177
ssS'name'
p178
S'Arduino Duemilanove w/ ATmega328'
p179
saa(lp180
S'diecimila'
p181
a(dp182
S'build'
p183
(dp184
S'core'
p185
S'arduino'
p186
sS'mcu'
p187
S'atmega168'
p188
sS'f_cpu'
p189
S'16000000L'
p190
sS'variant'
p191
S'standard'
p192
ssS'bootloader'
p193
(dp194
S'extended_fuses'
p195
S'0x00'
p196
sS'high_fuses'
p197
S'0xdd'
p198
sS'low_fuses'
p199
S'0xff'
p200
sS'lock_bits'
p201
S'0x0F'
p202
sS'file'
p203
S'ATmegaBOOT_168_diecimila.hex'
p204
sS'path'
p205
S'atmega'
p206
sS'unlock_bits'
p207
S'0x3F'
p208
ssS'upload'
p209
(dp210
S'protocol'
p211
S'arduino'
p212
sS'maximum_size'
p213
S'14336'
p214
sS'speed'
p215
S'19200'
p216
ssS'name'
p217
S'Arduino Diecimila or Duemilanove w/ ATmega168'
p218
saa(lp219
S'nano328'
p220
a(dp221
S'build'
p222
(dp223
S'core'
p224
S'arduino'
p225
sS'mcu'
p226
S'atmega328p'
p227
sS'f_cpu'
p228
S'16000000L'
p229
sS'variant'
p230
S'eightanaloginputs'
p231
ssS'bootloader'
p232
(dp233
S'extended_fuses'
p234
S'0x05'
p235
sS'high_fuses'
p236
S'0xDA'
p237
sS'low_fuses'
p238
S'0xFF'
p239
sS'lock_bits'
p240
S'0x0F'
p241
sS'file'
p242
S'ATmegaBOOT_168_atmega328.hex'
p243
sS'path'
p244
S'atmega'
p245
sS'unlock_bits'
p246
S'0x3F'
p247
ssS'upload'
p248
(dp249
S'protocol'
p250
S'arduino'
p251
sS'maximum_size'
p252
S'30720'
p253
sS'speed'
p254
S'57600'
p255
ssS'name'
p256
S'Arduino Nano w/ ATmega328'
p257
saa(lp258
S'nano'
p259
a(dp260
S'build'
p261
(dp262
S'core'
p263
S'arduino'
p264
sS'mcu'
p265
S'atmega168'
p266
sS'f_cpu'
p267
S'16000000L'
p268
sS'variant'
p269
S'eightanaloginputs'
p270
ssS'bootloader'
p271
(dp272
S'extended_fuses'
p273
S'0x00'
p274
sS'high_fuses'
p275
S'0xdd'
p276
sS'low_fuses'
p277
S'0xff'
p278
sS'lock_bits'
p279
S'0x0F'
p280
sS'file'
p281
S'ATmegaBOOT_168_diecimila.hex'
p282
sS'path'
p283
S'atmega'
p284
sS'unlock_bits'
p285
S'0x3F'
p286
ssS'upload'
p287
(dp288
S'protocol'
p289
S'arduino'
p290
sS'maximum_size'
p291
S'14336'
p292
sS'speed'
p293
S'19200'
p294
ssS'name'
p295
S'Arduino Nano w/ ATmega168'
p296
saa(lp297
S'mega2560'
p298
a(dp299
S'build'
p300
(dp301
S'core'
p302
S'arduino'
p303
sS'mcu'
p304
S'atmega2560'
p305
sS'f_cpu'
p306
S'16000000L'
p307
sS'variant'
p308
S'mega'
p309
ssS'bootloader'
p310
(dp311
S'extended_fuses'
p312
S'0xFD'
p313
sS'high_fuses'
p314
S'0xD8'
p315
sS'low_fuses'
p316
S'0xFF'
p317
sS'lock_bits'
p318
S'0x0F'
p319
sS'file'
p320
S'stk500boot_v2_mega2560.hex'
p321
sS'path'
p322
S'stk500v2'
p323
sS'unlock_bits'
p324
S'0x3F'
p325
ssS'upload'
p326
(dp327
S'protocol'
p328
S'wiring'
p329
sS'maximum_size'
p330
S'258048'
p331
sS'speed'
p332
S'115200'
p333
ssS'name'
p334
S'Arduino Mega 2560 or Mega ADK'
p335
saa(lp336
S'mega'
p337
a(dp338
S'build'
p339
(dp340
S'core'
p341
S'arduino'
p342
sS'mcu'
p343
S'atmega1280'
p344
sS'f_cpu'
p345
S'16000000L'
p346
sS'variant'
p347
S'mega'
p348
ssS'bootloader'
p349
(dp350
S'extended_fuses'
p351
S'0xF5'
p352
sS'high_fuses'
p353
S'0xDA'
p354
sS'low_fuses'
p355
S'0xFF'
p356
sS'lock_bits'
p357
S'0x0F'
p358
sS'file'
p359
S'ATmegaBOOT_168_atmega1280.hex'
p360
sS'path'
p361
S'atmega'
p362
sS'unlock_bits'
p363
S'0x3F'
p364
ssS'upload'
p365
(dp366
S'protocol'
p367
S'arduino'
p368
sS'maximum_size'
p369
S'126976'
p370
sS'speed'
p371
S'57600'
p372
ssS'name'
p373
S'Arduino Mega (ATmega1280)'
p374
saa(lp375
S'leonardo'
p376
a(dp377
S'build'
p378
(dp379
S'core'
p380
S'arduino'
p381
sS'f_cpu'
p382
S'16000000L'
p383
sS'vid'
p384
S'0x2341'
p385
sS'pid'
p386
S'0x8036'
p387
sS'variant'
p388
S'leonardo'
p389
sS'mcu'
p390
S'atmega32u4'
p391
ssS'bootloader'
p392
(dp393
S'extended_fuses'
p394
S'0xcb'
p395
sS'high_fuses'
p396
S'0xd8'
p397
sS'low_fuses'
p398
S'0xff'
p399
sS'lock_bits'
p400
S'0x2F'
p401
sS'file'
p402
S'Caterina-Leonardo.hex'
p403
sS'path'
p404
S'caterina'
p405
sS'unlock_bits'
p406
S'0x3F'
p407
ssS'upload'
p408
(dp409
S'protocol'
p410
S'avr109'
p411
sS'maximum_size'
p412
S'28672'
p413
sS'speed'
p414
S'57600'
p415
sS'disable_flushing'
p416
S'true'
p417
ssS'name'
p418
S'Arduino Leonardo'
p419
saa(lp420
S'esplora'
p421
a(dp422
S'build'
p423
(dp424
S'core'
p425
S'arduino'
p426
sS'f_cpu'
p427
S'16000000L'
p428
sS'vid'
p429
S'0x2341'
p430
sS'pid'
p431
S'0x803C'
p432
sS'variant'
p433
S'leonardo'
p434
sS'mcu'
p435
S'atmega32u4'
p436
ssS'bootloader'
p437
(dp438
S'extended_fuses'
p439
S'0xcb'
p440
sS'high_fuses'
p441
S'0xd8'
p442
sS'low_fuses'
p443
S'0xff'
p444
sS'lock_bits'
p445
S'0x2F'
p446
sS'file'
p447
S'Caterina-Esplora.hex'
p448
sS'path'
p449
S'caterina'
p450
sS'unlock_bits'
p451
S'0x3F'
p452
ssS'upload'
p453
(dp454
S'protocol'
p455
S'avr109'
p456
sS'maximum_size'
p457
S'28672'
p458
sS'speed'
p459
S'57600'
p460
sS'disable_flushing'
p461
S'true'
p462
ssS'name'
p463
S'Arduino Esplora'
p464
saa(lp465
S'micro'
p466
a(dp467
S'build'
p468
(dp469
S'core'
p470
S'arduino'
p471
sS'f_cpu'
p472
S'16000000L'
p473
sS'vid'
p474
S'0x2341'
p475
sS'pid'
p476
S'0x8037'
p477
sS'variant'
p478
S'micro'
p479
sS'mcu'
p480
S'atmega32u4'
p481
ssS'bootloader'
p482
(dp483
S'extended_fuses'
p484
S'0xcb'
p485
sS'high_fuses'
p486
S'0xd8'
p487
sS'low_fuses'
p488
S'0xff'
p489
sS'lock_bits'
p490
S'0x2F'
p491
sS'file'
p492
S'Caterina-Micro.hex'
p493
sS'path'
p494
S'caterina'
p495
sS'unlock_bits'
p496
S'0x3F'
p497
ssS'upload'
p498
(dp499
S'protocol'
p500
S'avr109'
p501
sS'maximum_size'
p502
S'28672'
p503
sS'speed'
p504
S'57600'
p505
sS'disable_flushing'
p506
S'true'
p507
ssS'name'
p508
S'Arduino Micro'
p509
saa(lp510
S'mini328'
p511
a(dp512
S'build'
p513
(dp514
S'core'
p515
S'arduino'
p516
sS'mcu'
p517
S'atmega328p'
p518
sS'f_cpu'
p519
S'16000000L'
p520
sS'variant'
p521
S'eightanaloginputs'
p522
ssS'bootloader'
p523
(dp524
S'extended_fuses'
p525
S'0x05'
p526
sS'high_fuses'
p527
S'0xd8'
p528
sS'low_fuses'
p529
S'0xff'
p530
sS'lock_bits'
p531
S'0x0F'
p532
sS'file'
p533
S'optiboot_atmega328-Mini.hex'
p534
sS'path'
p535
S'optiboot'
p536
sS'unlock_bits'
p537
S'0x3F'
p538
ssS'upload'
p539
(dp540
S'protocol'
p541
S'arduino'
p542
sS'maximum_size'
p543
S'28672'
p544
sS'speed'
p545
S'115200'
p546
ssS'name'
p547
S'Arduino Mini w/ ATmega328'
p548
saa(lp549
S'mini'
p550
a(dp551
S'build'
p552
(dp553
S'core'
p554
S'arduino'
p555
sS'mcu'
p556
S'atmega168'
p557
sS'f_cpu'
p558
S'16000000L'
p559
sS'variant'
p560
S'eightanaloginputs'
p561
ssS'bootloader'
p562
(dp563
S'extended_fuses'
p564
S'0x00'
p565
sS'high_fuses'
p566
S'0xdd'
p567
sS'low_fuses'
p568
S'0xff'
p569
sS'lock_bits'
p570
S'0x0F'
p571
sS'file'
p572
S'ATmegaBOOT_168_ng.hex'
p573
sS'path'
p574
S'atmega'
p575
sS'unlock_bits'
p576
S'0x3F'
p577
ssS'upload'
p578
(dp579
S'protocol'
p580
S'arduino'
p581
sS'maximum_size'
p582
S'14336'
p583
sS'speed'
p584
S'19200'
p585
ssS'name'
p586
S'Arduino Mini w/ ATmega168'
p587
saa(lp588
S'ethernet'
p589
a(dp590
S'build'
p591
(dp592
S'variant'
p593
S'standard'
p594
sS'mcu'
p595
S'atmega328p'
p596
sS'f_cpu'
p597
S'16000000L'
p598
sS'core'
p599
S'arduino'
p600
ssS'bootloader'
p601
(dp602
S'extended_fuses'
p603
S'0x05'
p604
sS'high_fuses'
p605
S'0xde'
p606
sS'low_fuses'
p607
S'0xff'
p608
sS'lock_bits'
p609
S'0x0F'
p610
sS'file'
p611
S'optiboot_atmega328.hex'
p612
sS'path'
p613
S'optiboot'
p614
sS'unlock_bits'
p615
S'0x3F'
p616
ssS'upload'
p617
(dp618
S'protocol'
p619
S'arduino'
p620
sS'maximum_size'
p621
S'32256'
p622
sS'speed'
p623
S'115200'
p624
ssS'name'
p625
S'Arduino Ethernet'
p626
saa(lp627
S'fio'
p628
a(dp629
S'build'
p630
(dp631
S'core'
p632
S'arduino'
p633
sS'mcu'
p634
S'atmega328p'
p635
sS'f_cpu'
p636
S'8000000L'
p637
sS'variant'
p638
S'eightanaloginputs'
p639
ssS'bootloader'
p640
(dp641
S'extended_fuses'
p642
S'0x05'
p643
sS'high_fuses'
p644
S'0xDA'
p645
sS'low_fuses'
p646
S'0xFF'
p647
sS'lock_bits'
p648
S'0x0F'
p649
sS'file'
p650
S'ATmegaBOOT_168_atmega328_pro_8MHz.hex'
p651
sS'path'
p652
S'arduino:atmega'
p653
sS'unlock_bits'
p654
S'0x3F'
p655
ssS'upload'
p656
(dp657
S'protocol'
p658
S'arduino'
p659
sS'maximum_size'
p660
S'30720'
p661
sS'speed'
p662
S'57600'
p663
ssS'name'
p664
S'Arduino Fio'
p665
saa(lp666
S'bt328'
p667
a(dp668
S'build'
p669
(dp670
S'core'
p671
S'arduino'
p672
sS'mcu'
p673
S'atmega328p'
p674
sS'f_cpu'
p675
S'16000000L'
p676
sS'variant'
p677
S'eightanaloginputs'
p678
ssS'bootloader'
p679
(dp680
S'extended_fuses'
p681
S'0x05'
p682
sS'high_fuses'
p683
S'0xd8'
p684
sS'low_fuses'
p685
S'0xff'
p686
sS'lock_bits'
p687
S'0x0F'
p688
sS'file'
p689
S'ATmegaBOOT_168_atmega328_bt.hex'
p690
sS'path'
p691
S'bt'
p692
sS'unlock_bits'
p693
S'0x3F'
p694
ssS'upload'
p695
(dp696
S'protocol'
p697
S'arduino'
p698
sS'maximum_size'
p699
S'28672'
p700
sS'speed'
p701
S'19200'
p702
sS'disable_flushing'
p703
S'true'
p704
ssS'name'
p705
S'Arduino BT w/ ATmega328'
p706
saa(lp707
S'bt'
p708
a(dp709
S'build'
p710
(dp711
S'core'
p712
S'arduino'
p713
sS'mcu'
p714
S'atmega168'
p715
sS'f_cpu'
p716
S'16000000L'
p717
sS'variant'
p718
S'eightanaloginputs'
p719
ssS'bootloader'
p720
(dp721
S'extended_fuses'
p722
S'0x00'
p723
sS'high_fuses'
p724
S'0xdd'
p725
sS'low_fuses'
p726
S'0xff'
p727
sS'lock_bits'
p728
S'0x0F'
p729
sS'file'
p730
S'ATmegaBOOT_168.hex'
p731
sS'path'
p732
S'bt'
p733
sS'unlock_bits'
p734
S'0x3F'
p735
ssS'upload'
p736
(dp737
S'protocol'
p738
S'arduino'
p739
sS'maximum_size'
p740
S'14336'
p741
sS'speed'
p742
S'19200'
p743
sS'disable_flushing'
p744
S'true'
p745
ssS'name'
p746
S'Arduino BT w/ ATmega168'
p747
saa(lp748
S'LilyPadUSB'
p749
a(dp750
S'build'
p751
(dp752
S'core'
p753
S'arduino'
p754
sS'f_cpu'
p755
S'8000000L'
p756
sS'vid'
p757
S'0x1B4F'
p758
sS'pid'
p759
S'0x9208'
p760
sS'variant'
p761
S'leonardo'
p762
sS'mcu'
p763
S'atmega32u4'
p764
ssS'bootloader'
p765
(dp766
S'extended_fuses'
p767
S'0xce'
p768
sS'high_fuses'
p769
S'0xd8'
p770
sS'low_fuses'
p771
S'0xff'
p772
sS'lock_bits'
p773
S'0x2F'
p774
sS'file'
p775
S'Caterina-LilyPadUSB.hex'
p776
sS'path'
p777
S'caterina-LilyPadUSB'
p778
sS'unlock_bits'
p779
S'0x3F'
p780
ssS'upload'
p781
(dp782
S'protocol'
p783
S'avr109'
p784
sS'maximum_size'
p785
S'28672'
p786
sS'speed'
p787
S'57600'
p788
sS'disable_flushing'
p789
S'true'
p790
ssS'name'
p791
S'LilyPad Arduino USB'
p792
saa(lp793
S'lilypad328'
p794
a(dp795
S'build'
p796
(dp797
S'core'
p798
S'arduino'
p799
sS'mcu'
p800
S'atmega328p'
p801
sS'f_cpu'
p802
S'8000000L'
p803
sS'variant'
p804
S'standard'
p805
ssS'bootloader'
p806
(dp807
S'extended_fuses'
p808
S'0x05'
p809
sS'high_fuses'
p810
S'0xDA'
p811
sS'low_fuses'
p812
S'0xFF'
p813
sS'lock_bits'
p814
S'0x0F'
p815
sS'file'
p816
S'ATmegaBOOT_168_atmega328_pro_8MHz.hex'
p817
sS'path'
p818
S'atmega'
p819
sS'unlock_bits'
p820
S'0x3F'
p821
ssS'upload'
p822
(dp823
S'protocol'
p824
S'arduino'
p825
sS'maximum_size'
p826
S'30720'
p827
sS'speed'
p828
S'57600'
p829
ssS'name'
p830
S'LilyPad Arduino w/ ATmega328'
p831
saa(lp832
S'lilypad'
p833
a(dp834
S'build'
p835
(dp836
S'core'
p837
S'arduino'
p838
sS'mcu'
p839
S'atmega168'
p840
sS'f_cpu'
p841
S'8000000L'
p842
sS'variant'
p843
S'standard'
p844
ssS'bootloader'
p845
(dp846
S'extended_fuses'
p847
S'0x00'
p848
sS'high_fuses'
p849
S'0xdd'
p850
sS'low_fuses'
p851
S'0xe2'
p852
sS'lock_bits'
p853
S'0x0F'
p854
sS'file'
p855
S'LilyPadBOOT_168.hex'
p856
sS'path'
p857
S'lilypad'
p858
sS'unlock_bits'
p859
S'0x3F'
p860
ssS'upload'
p861
(dp862
S'protocol'
p863
S'arduino'
p864
sS'maximum_size'
p865
S'14336'
p866
sS'speed'
p867
S'19200'
p868
ssS'name'
p869
S'LilyPad Arduino w/ ATmega168'
p870
saa(lp871
S'pro5v328'
p872
a(dp873
S'build'
p874
(dp875
S'core'
p876
S'arduino'
p877
sS'mcu'
p878
S'atmega328p'
p879
sS'f_cpu'
p880
S'16000000L'
p881
sS'variant'
p882
S'standard'
p883
ssS'bootloader'
p884
(dp885
S'extended_fuses'
p886
S'0x05'
p887
sS'high_fuses'
p888
S'0xDA'
p889
sS'low_fuses'
p890
S'0xFF'
p891
sS'lock_bits'
p892
S'0x0F'
p893
sS'file'
p894
S'ATmegaBOOT_168_atmega328.hex'
p895
sS'path'
p896
S'atmega'
p897
sS'unlock_bits'
p898
S'0x3F'
p899
ssS'upload'
p900
(dp901
S'protocol'
p902
S'arduino'
p903
sS'maximum_size'
p904
S'30720'
p905
sS'speed'
p906
S'57600'
p907
ssS'name'
p908
S'Arduino Pro or Pro Mini (5V, 16 MHz) w/ ATmega328'
p909
saa(lp910
S'pro5v'
p911
a(dp912
S'build'
p913
(dp914
S'core'
p915
S'arduino'
p916
sS'mcu'
p917
S'atmega168'
p918
sS'f_cpu'
p919
S'16000000L'
p920
sS'variant'
p921
S'standard'
p922
ssS'bootloader'
p923
(dp924
S'extended_fuses'
p925
S'0x00'
p926
sS'high_fuses'
p927
S'0xdd'
p928
sS'low_fuses'
p929
S'0xff'
p930
sS'lock_bits'
p931
S'0x0F'
p932
sS'file'
p933
S'ATmegaBOOT_168_diecimila.hex'
p934
sS'path'
p935
S'atmega'
p936
sS'unlock_bits'
p937
S'0x3F'
p938
ssS'upload'
p939
(dp940
S'protocol'
p941
S'arduino'
p942
sS'maximum_size'
p943
S'14336'
p944
sS'speed'
p945
S'19200'
p946
ssS'name'
p947
S'Arduino Pro or Pro Mini (5V, 16 MHz) w/ ATmega168'
p948
saa(lp949
S'pro328'
p950
a(dp951
S'build'
p952
(dp953
S'core'
p954
S'arduino'
p955
sS'mcu'
p956
S'atmega328p'
p957
sS'f_cpu'
p958
S'8000000L'
p959
sS'variant'
p960
S'standard'
p961
ssS'bootloader'
p962
(dp963
S'extended_fuses'
p964
S'0x05'
p965
sS'high_fuses'
p966
S'0xDA'
p967
sS'low_fuses'
p968
S'0xFF'
p969
sS'lock_bits'
p970
S'0x0F'
p971
sS'file'
p972
S'ATmegaBOOT_168_atmega328_pro_8MHz.hex'
p973
sS'path'
p974
S'atmega'
p975
sS'unlock_bits'
p976
S'0x3F'
p977
ssS'upload'
p978
(dp979
S'protocol'
p980
S'arduino'
p981
sS'maximum_size'
p982
S'30720'
p983
sS'speed'
p984
S'57600'
p985
ssS'name'
p986
S'Arduino Pro or Pro Mini (3.3V, 8 MHz) w/ ATmega328'
p987
saa(lp988
S'pro'
p989
a(dp990
S'build'
p991
(dp992
S'core'
p993
S'arduino'
p994
sS'mcu'
p995
S'atmega168'
p996
sS'f_cpu'
p997
S'8000000L'
p998
sS'variant'
p999
S'standard'
p1000
ssS'bootloader'
p1001
(dp1002
S'extended_fuses'
p1003
S'0x00'
p1004
sS'high_fuses'
p1005
S'0xdd'
p1006
sS'low_fuses'
p1007
S'0xc6'
p1008
sS'lock_bits'
p1009
S'0x0F'
p1010
sS'file'
p1011
S'ATmegaBOOT_168_pro_8MHz.hex'
p1012
sS'path'
p1013
S'atmega'
p1014
sS'unlock_bits'
p1015
S'0x3F'
p1016
ssS'upload'
p1017
(dp1018
S'protocol'
p1019
S'arduino'
p1020
sS'maximum_size'
p1021
S'14336'
p1022
sS'speed'
p1023
S'19200'
p1024
ssS'name'
p1025
S'Arduino Pro or Pro Mini (3.3V, 8 MHz) w/ ATmega168'
p1026
saa(lp1027
S'atmega168'
p1028
a(dp1029
S'build'
p1030
(dp1031
S'core'
p1032
S'arduino'
p1033
sS'mcu'
p1034
S'atmega168'
p1035
sS'f_cpu'
p1036
S'16000000L'
p1037
sS'variant'
p1038
S'standard'
p1039
ssS'bootloader'
p1040
(dp1041
S'extended_fuses'
p1042
S'0x00'
p1043
sS'high_fuses'
p1044
S'0xdd'
p1045
sS'low_fuses'
p1046
S'0xff'
p1047
sS'lock_bits'
p1048
S'0x0F'
p1049
sS'file'
p1050
S'ATmegaBOOT_168_ng.hex'
p1051
sS'path'
p1052
S'atmega'
p1053
sS'unlock_bits'
p1054
S'0x3F'
p1055
ssS'upload'
p1056
(dp1057
S'protocol'
p1058
S'arduino'
p1059
sS'maximum_size'
p1060
S'14336'
p1061
sS'speed'
p1062
S'19200'
p1063
ssS'name'
p1064
S'Arduino NG or older w/ ATmega168'
p1065
saa(lp1066
S'atmega8'
p1067
a(dp1068
S'build'
p1069
(dp1070
S'core'
p1071
S'arduino'
p1072
sS'mcu'
p1073
S'atmega8'
p1074
sS'f_cpu'
p1075
S'16000000L'
p1076
sS'variant'
p1077
S'standard'
p1078
ssS'bootloader'
p1079
(dp1080
S'high_fuses'
p1081
S'0xca'
p1082
sS'low_fuses'
p1083
S'0xdf'
p1084
sS'lock_bits'
p1085
S'0x0F'
p1086
sS'file'
p1087
S'ATmegaBOOT-prod-firmware-2009-11-07.hex'
p1088
sS'path'
p1089
S'atmega8'
p1090
sS'unlock_bits'
p1091
S'0x3F'
p1092
ssS'upload'
p1093
(dp1094
S'protocol'
p1095
S'arduino'
p1096
sS'maximum_size'
p1097
S'7168'
p1098
sS'speed'
p1099
S'19200'
p1100
ssS'name'
p1101
S'Arduino NG or older w/ ATmega8'
p1102
saa(lp1103
S'robotControl'
p1104
a(dp1105
S'build'
p1106
(dp1107
S'core'
p1108
S'robot'
p1109
sS'f_cpu'
p1110
S'16000000L'
p1111
sS'vid'
p1112
S'0x2341'
p1113
sS'pid'
p1114
S'0x8038'
p1115
sS'variant'
p1116
S'robot_control'
p1117
sS'mcu'
p1118
S'atmega32u4'
p1119
ssS'bootloader'
p1120
(dp1121
S'extended_fuses'
p1122
S'0xcb'
p1123
sS'high_fuses'
p1124
S'0xd8'
p1125
sS'low_fuses'
p1126
S'0xff'
p1127
sS'lock_bits'
p1128
S'0x2F'
p1129
sS'file'
p1130
S'Caterina-Robot-Control.hex'
p1131
sS'path'
p1132
S'caterina-Arduino_Robot'
p1133
sS'unlock_bits'
p1134
S'0x3F'
p1135
ssS'upload'
p1136
(dp1137
S'protocol'
p1138
S'avr109'
p1139
sS'maximum_size'
p1140
S'28672'
p1141
sS'speed'
p1142
S'57600'
p1143
sS'disable_flushing'
p1144
S'true'
p1145
ssS'name'
p1146
S'Arduino Robot Control'
p1147
saa(lp1148
S'robotMotor'
p1149
a(dp1150
S'build'
p1151
(dp1152
S'core'
p1153
S'robot'
p1154
sS'f_cpu'
p1155
S'16000000L'
p1156
sS'vid'
p1157
S'0x2341'
p1158
sS'pid'
p1159
S'0x8039'
p1160
sS'variant'
p1161
S'robot_motor'
p1162
sS'mcu'
p1163
S'atmega32u4'
p1164
ssS'bootloader'
p1165
(dp1166
S'extended_fuses'
p1167
S'0xcb'
p1168
sS'high_fuses'
p1169
S'0xd8'
p1170
sS'low_fuses'
p1171
S'0xff'
p1172
sS'lock_bits'
p1173
S'0x2F'
p1174
sS'file'
p1175
S'Caterina-Robot-Motor.hex'
p1176
sS'path'
p1177
S'caterina-Arduino_Robot'
p1178
sS'unlock_bits'
p1179
S'0x3F'
p1180
ssS'upload'
p1181
(dp1182
S'protocol'
p1183
S'avr109'
p1184
sS'maximum_size'
p1185
S'28672'
p1186
sS'speed'
p1187
S'57600'
p1188
sS'disable_flushing'
p1189
S'true'
p1190
ssS'name'
p1191
S'Arduino Robot Motor'
p1192
saatp1193
Rp1194
(dp1195
S'default'
p1196
S'uno'
p1197
sbtp1198
a(S'ldflags'
p1199
g2
(g3
g4
(lp1200
g6
aS'-Wl,-Os'
p1201
aS'-Wl,--gc-sections'
p1202
atp1203
Rp1204
tp1205
a.